; ModuleID = 'source-C-CXX/25/304.cpp'
source_filename = "source-C-CXX/25/304.cpp"
target datalayout = "e-m:e-p270:32:32-p271:32:32-p272:64:64-i64:64-f80:128-n8:16:32:64-S128"
target triple = "x86_64-pc-linux-gnu"

%"class.std::ios_base::Init" = type { i8 }
%"class.std::basic_istream" = type { i32 (...)**, i64, %"class.std::basic_ios" }
%"class.std::basic_ios" = type { %"class.std::ios_base", %"class.std::basic_ostream"*, i8, i8, %"class.std::basic_streambuf"*, %"class.std::ctype"*, %"class.std::num_put"*, %"class.std::num_get"* }
%"class.std::ios_base" = type { i32 (...)**, i64, i64, i32, i32, i32, %"struct.std::ios_base::_Callback_list"*, %"struct.std::ios_base::_Words", [8 x %"struct.std::ios_base::_Words"], i32, %"struct.std::ios_base::_Words"*, %"class.std::locale" }
%"struct.std::ios_base::_Callback_list" = type { %"struct.std::ios_base::_Callback_list"*, void (i32, %"class.std::ios_base"*, i32)*, i32, i32 }
%"struct.std::ios_base::_Words" = type { i8*, i64 }
%"class.std::locale" = type { %"class.std::locale::_Impl"* }
%"class.std::locale::_Impl" = type { i32, %"class.std::locale::facet"**, i64, %"class.std::locale::facet"**, i8** }
%"class.std::locale::facet" = type <{ i32 (...)**, i32, [4 x i8] }>
%"class.std::basic_ostream" = type { i32 (...)**, %"class.std::basic_ios" }
%"class.std::basic_streambuf" = type { i32 (...)**, i8*, i8*, i8*, i8*, i8*, i8*, %"class.std::locale" }
%"class.std::ctype" = type <{ %"class.std::locale::facet.base", [4 x i8], %struct.__locale_struct*, i8, [7 x i8], i32*, i32*, i16*, i8, [256 x i8], [256 x i8], i8, [6 x i8] }>
%"class.std::locale::facet.base" = type <{ i32 (...)**, i32 }>
%struct.__locale_struct = type { [13 x %struct.__locale_data*], i16*, i32*, i32*, [13 x i8*] }
%struct.__locale_data = type opaque
%"class.std::num_put" = type { %"class.std::locale::facet.base", [4 x i8] }
%"class.std::num_get" = type { %"class.std::locale::facet.base", [4 x i8] }

@_ZStL8__ioinit = internal global %"class.std::ios_base::Init" zeroinitializer, align 1
@__dso_handle = external hidden global i8
@_ZSt3cin = external global %"class.std::basic_istream", align 8
@_ZSt4cout = external global %"class.std::basic_ostream", align 8
@.str = private unnamed_addr constant [2 x i8] c" \00", align 1
@llvm.global_ctors = appending global [1 x { i32, void ()*, i8* }] [{ i32, void ()*, i8* } { i32 65535, void ()* @_GLOBAL__sub_I_304.cpp, i8* null }]

declare void @_ZNSt8ios_base4InitC1Ev(%"class.std::ios_base::Init"* nonnull align 1 dereferenceable(1)) unnamed_addr #0

; Function Attrs: nounwind
declare void @_ZNSt8ios_base4InitD1Ev(%"class.std::ios_base::Init"* nonnull align 1 dereferenceable(1)) unnamed_addr #1

; Function Attrs: nofree nounwind
declare i32 @__cxa_atexit(void (i8*)*, i8*, i8*) local_unnamed_addr #2

; Function Attrs: mustprogress norecurse sspstrong uwtable
define dso_local i32 @main() local_unnamed_addr #3 {
  %1 = alloca i8, align 1
  %2 = alloca [101 x i8], align 16
  %3 = getelementptr inbounds [101 x i8], [101 x i8]* %2, i64 0, i64 0
  call void @llvm.lifetime.start.p0i8(i64 101, i8* nonnull %3) #7
  %4 = load i8*, i8** bitcast (%"class.std::basic_istream"* @_ZSt3cin to i8**), align 8, !tbaa !5
  %5 = getelementptr i8, i8* %4, i64 -24
  %6 = bitcast i8* %5 to i64*
  %7 = load i64, i64* %6, align 8
  %8 = add nsw i64 %7, 240
  %9 = getelementptr inbounds i8, i8* bitcast (%"class.std::basic_istream"* @_ZSt3cin to i8*), i64 %8
  %10 = bitcast i8* %9 to %"class.std::ctype"**
  %11 = load %"class.std::ctype"*, %"class.std::ctype"** %10, align 8, !tbaa !8
  %12 = icmp eq %"class.std::ctype"* %11, null
  br i1 %12, label %13, label %14

13:                                               ; preds = %0
  tail call void @_ZSt16__throw_bad_castv() #8
  unreachable

14:                                               ; preds = %0
  %15 = getelementptr inbounds %"class.std::ctype", %"class.std::ctype"* %11, i64 0, i32 8
  %16 = load i8, i8* %15, align 8, !tbaa !13
  %17 = icmp eq i8 %16, 0
  br i1 %17, label %21, label %18

18:                                               ; preds = %14
  %19 = getelementptr inbounds %"class.std::ctype", %"class.std::ctype"* %11, i64 0, i32 9, i64 10
  %20 = load i8, i8* %19, align 1, !tbaa !15
  br label %27

21:                                               ; preds = %14
  tail call void @_ZNKSt5ctypeIcE13_M_widen_initEv(%"class.std::ctype"* nonnull align 8 dereferenceable(570) %11)
  %22 = bitcast %"class.std::ctype"* %11 to i8 (%"class.std::ctype"*, i8)***
  %23 = load i8 (%"class.std::ctype"*, i8)**, i8 (%"class.std::ctype"*, i8)*** %22, align 8, !tbaa !5
  %24 = getelementptr inbounds i8 (%"class.std::ctype"*, i8)*, i8 (%"class.std::ctype"*, i8)** %23, i64 6
  %25 = load i8 (%"class.std::ctype"*, i8)*, i8 (%"class.std::ctype"*, i8)** %24, align 8
  %26 = tail call signext i8 %25(%"class.std::ctype"* nonnull align 8 dereferenceable(570) %11, i8 signext 10)
  br label %27

27:                                               ; preds = %18, %21
  %28 = phi i8 [ %20, %18 ], [ %26, %21 ]
  %29 = call nonnull align 8 dereferenceable(16) %"class.std::basic_istream"* @_ZNSi7getlineEPclc(%"class.std::basic_istream"* nonnull align 8 dereferenceable(16) @_ZSt3cin, i8* nonnull %3, i64 101, i8 signext %28)
  br label %30

30:                                               ; preds = %43, %27
  %31 = phi i8* [ %3, %27 ], [ %44, %43 ]
  %32 = load i8, i8* %31, align 1, !tbaa !15
  switch i8 %32, label %33 [
    i8 0, label %45
    i8 32, label %37
  ]

33:                                               ; preds = %30
  call void @llvm.lifetime.start.p0i8(i64 1, i8* nonnull %1)
  store i8 %32, i8* %1, align 1, !tbaa !15
  %34 = call nonnull align 8 dereferenceable(8) %"class.std::basic_ostream"* @_ZSt16__ostream_insertIcSt11char_traitsIcEERSt13basic_ostreamIT_T0_ES6_PKS3_l(%"class.std::basic_ostream"* nonnull align 8 dereferenceable(8) @_ZSt4cout, i8* nonnull %1, i64 1)
  call void @llvm.lifetime.end.p0i8(i64 1, i8* nonnull %1)
  %35 = load i8, i8* %31, align 1, !tbaa !15
  %36 = icmp eq i8 %35, 32
  br i1 %36, label %37, label %43

37:                                               ; preds = %30, %33
  %38 = getelementptr inbounds i8, i8* %31, i64 1
  %39 = load i8, i8* %38, align 1, !tbaa !15
  %40 = icmp eq i8 %39, 32
  br i1 %40, label %43, label %41

41:                                               ; preds = %37
  %42 = call nonnull align 8 dereferenceable(8) %"class.std::basic_ostream"* @_ZSt16__ostream_insertIcSt11char_traitsIcEERSt13basic_ostreamIT_T0_ES6_PKS3_l(%"class.std::basic_ostream"* nonnull align 8 dereferenceable(8) @_ZSt4cout, i8* nonnull getelementptr inbounds ([2 x i8], [2 x i8]* @.str, i64 0, i64 0), i64 1)
  br label %43

43:                                               ; preds = %33, %41, %37
  %44 = getelementptr inbounds i8, i8* %31, i64 1
  br label %30, !llvm.loop !16

45:                                               ; preds = %30
  %46 = load i8*, i8** bitcast (%"class.std::basic_ostream"* @_ZSt4cout to i8**), align 8, !tbaa !5
  %47 = getelementptr i8, i8* %46, i64 -24
  %48 = bitcast i8* %47 to i64*
  %49 = load i64, i64* %48, align 8
  %50 = add nsw i64 %49, 240
  %51 = getelementptr inbounds i8, i8* bitcast (%"class.std::basic_ostream"* @_ZSt4cout to i8*), i64 %50
  %52 = bitcast i8* %51 to %"class.std::ctype"**
  %53 = load %"class.std::ctype"*, %"class.std::ctype"** %52, align 8, !tbaa !8
  %54 = icmp eq %"class.std::ctype"* %53, null
  br i1 %54, label %55, label %56

55:                                               ; preds = %45
  call void @_ZSt16__throw_bad_castv() #8
  unreachable

56:                                               ; preds = %45
  %57 = getelementptr inbounds %"class.std::ctype", %"class.std::ctype"* %53, i64 0, i32 8
  %58 = load i8, i8* %57, align 8, !tbaa !13
  %59 = icmp eq i8 %58, 0
  br i1 %59, label %63, label %60

60:                                               ; preds = %56
  %61 = getelementptr inbounds %"class.std::ctype", %"class.std::ctype"* %53, i64 0, i32 9, i64 10
  %62 = load i8, i8* %61, align 1, !tbaa !15
  br label %69

63:                                               ; preds = %56
  call void @_ZNKSt5ctypeIcE13_M_widen_initEv(%"class.std::ctype"* nonnull align 8 dereferenceable(570) %53)
  %64 = bitcast %"class.std::ctype"* %53 to i8 (%"class.std::ctype"*, i8)***
  %65 = load i8 (%"class.std::ctype"*, i8)**, i8 (%"class.std::ctype"*, i8)*** %64, align 8, !tbaa !5
  %66 = getelementptr inbounds i8 (%"class.std::ctype"*, i8)*, i8 (%"class.std::ctype"*, i8)** %65, i64 6
  %67 = load i8 (%"class.std::ctype"*, i8)*, i8 (%"class.std::ctype"*, i8)** %66, align 8
  %68 = call signext i8 %67(%"class.std::ctype"* nonnull align 8 dereferenceable(570) %53, i8 signext 10)
  br label %69

69:                                               ; preds = %60, %63
  %70 = phi i8 [ %62, %60 ], [ %68, %63 ]
  %71 = call nonnull align 8 dereferenceable(8) %"class.std::basic_ostream"* @_ZNSo3putEc(%"class.std::basic_ostream"* nonnull align 8 dereferenceable(8) @_ZSt4cout, i8 signext %70)
  %72 = call nonnull align 8 dereferenceable(8) %"class.std::basic_ostream"* @_ZNSo5flushEv(%"class.std::basic_ostream"* nonnull align 8 dereferenceable(8) %71)
  call void @llvm.lifetime.end.p0i8(i64 101, i8* nonnull %3) #7
  ret i32 0
}

; Function Attrs: argmemonly mustprogress nofree nosync nounwind willreturn
declare void @llvm.lifetime.start.p0i8(i64 immarg, i8* nocapture) #4

; Function Attrs: argmemonly mustprogress nofree nosync nounwind willreturn
declare void @llvm.lifetime.end.p0i8(i64 immarg, i8* nocapture) #4

declare nonnull align 8 dereferenceable(16) %"class.std::basic_istream"* @_ZNSi7getlineEPclc(%"class.std::basic_istream"* nonnull align 8 dereferenceable(16), i8*, i64, i8 signext) local_unnamed_addr #0

; Function Attrs: noreturn
declare void @_ZSt16__throw_bad_castv() local_unnamed_addr #5

declare void @_ZNKSt5ctypeIcE13_M_widen_initEv(%"class.std::ctype"* nonnull align 8 dereferenceable(570)) local_unnamed_addr #0

declare nonnull align 8 dereferenceable(8) %"class.std::basic_ostream"* @_ZSt16__ostream_insertIcSt11char_traitsIcEERSt13basic_ostreamIT_T0_ES6_PKS3_l(%"class.std::basic_ostream"* nonnull align 8 dereferenceable(8), i8*, i64) local_unnamed_addr #0

declare nonnull align 8 dereferenceable(8) %"class.std::basic_ostream"* @_ZNSo3putEc(%"class.std::basic_ostream"* nonnull align 8 dereferenceable(8), i8 signext) local_unnamed_addr #0

declare nonnull align 8 dereferenceable(8) %"class.std::basic_ostream"* @_ZNSo5flushEv(%"class.std::basic_ostream"* nonnull align 8 dereferenceable(8)) local_unnamed_addr #0

; Function Attrs: sspstrong uwtable
define internal void @_GLOBAL__sub_I_304.cpp() #6 section ".text.startup" {
  tail call void @_ZNSt8ios_base4InitC1Ev(%"class.std::ios_base::Init"* nonnull align 1 dereferenceable(1) @_ZStL8__ioinit)
  %1 = tail call i32 @__cxa_atexit(void (i8*)* bitcast (void (%"class.std::ios_base::Init"*)* @_ZNSt8ios_base4InitD1Ev to void (i8*)*), i8* getelementptr inbounds (%"class.std::ios_base::Init", %"class.std::ios_base::Init"* @_ZStL8__ioinit, i64 0, i32 0), i8* nonnull @__dso_handle) #7
  ret void
}


!llvm.module.flags = !{!0, !1, !2, !3}
!llvm.ident = !{!4}

!0 = !{i32 1, !"wchar_size", i32 4}
!1 = !{i32 7, !"PIC Level", i32 2}
!2 = !{i32 7, !"PIE Level", i32 2}
!3 = !{i32 7, !"uwtable", i32 1}
!4 = !{!"clang version 13.0.0"}
!5 = !{!6, !6, i64 0}
!6 = !{!"vtable pointer", !7, i64 0}
!7 = !{!"Simple C++ TBAA"}
!8 = !{!9, !10, i64 240}
!9 = !{!"_ZTSSt9basic_iosIcSt11char_traitsIcEE", !10, i64 216, !11, i64 224, !12, i64 225, !10, i64 232, !10, i64 240, !10, i64 248, !10, i64 256}
!10 = !{!"any pointer", !11, i64 0}
!11 = !{!"omnipotent char", !7, i64 0}
!12 = !{!"bool", !11, i64 0}
!13 = !{!14, !11, i64 56}
!14 = !{!"_ZTSSt5ctypeIcE", !10, i64 16, !12, i64 24, !10, i64 32, !10, i64 40, !10, i64 48, !11, i64 56, !11, i64 57, !11, i64 313, !11, i64 569}
!15 = !{!11, !11, i64 0}
!16 = distinct !{!16, !17}
!17 = !{!"llvm.loop.mustprogress"}
